target datalayout = "e-m:e-p270:32:32-p271:32:32-p272:64:64-i64:64-i128:128-f80:128-n8:16:32:64-S128"
target triple = "x86_64-pc-linux-gnu"

; Function Attrs: nounwind sspstrong uwtable
define hidden void @FLAC__lpc_window_data_partial_wide(ptr noundef %0, ptr noundef %1, ptr noundef %2, i32 noundef %3, i32 noundef %4, i32 noundef %5) #0 {
  %7 = alloca ptr, align 8
  %8 = alloca ptr, align 8
  %9 = alloca ptr, align 8
  %10 = alloca i32, align 4
  %11 = alloca i32, align 4
  %12 = alloca i32, align 4
  %13 = alloca i32, align 4
  %14 = alloca i32, align 4
  store ptr %0, ptr %7, align 8, !tbaa !16
  store ptr %1, ptr %8, align 8, !tbaa !8
  store ptr %2, ptr %9, align 8, !tbaa !8
  store i32 %3, ptr %10, align 4, !tbaa !10
  store i32 %4, ptr %11, align 4, !tbaa !10
  store i32 %5, ptr %12, align 4, !tbaa !10
  call void @llvm.lifetime.start.p0(i64 4, ptr %13) #5
  call void @llvm.lifetime.start.p0(i64 4, ptr %14) #5
  %15 = load i32, ptr %11, align 4, !tbaa !10
  %16 = load i32, ptr %12, align 4, !tbaa !10
  %17 = add i32 %15, %16
  %18 = load i32, ptr %10, align 4, !tbaa !10
  %19 = icmp ult i32 %17, %18
  br i1 %19, label %20, label %106

20:                                               ; preds = %6
  store i32 0, ptr %13, align 4, !tbaa !10
  br label %21

21:                                               ; preds = %44, %20
  %22 = load i32, ptr %13, align 4, !tbaa !10
  %23 = load i32, ptr %11, align 4, !tbaa !10
  %24 = icmp ult i32 %22, %23
  br i1 %24, label %25, label %47

25:                                               ; preds = %21
  %26 = load ptr, ptr %7, align 8, !tbaa !16
  %27 = load i32, ptr %12, align 4, !tbaa !10
  %28 = load i32, ptr %13, align 4, !tbaa !10
  %29 = add i32 %27, %28
  %30 = zext i32 %29 to i64
  %31 = getelementptr inbounds nuw i64, ptr %26, i64 %30
  %32 = load i64, ptr %31, align 8, !tbaa !18
  %33 = sitofp i64 %32 to float
  %34 = load ptr, ptr %8, align 8, !tbaa !8
  %35 = load i32, ptr %13, align 4, !tbaa !10
  %36 = zext i32 %35 to i64
  %37 = getelementptr inbounds nuw float, ptr %34, i64 %36
  %38 = load float, ptr %37, align 4, !tbaa !12
  %39 = fmul reassoc nsz arcp float %33, %38
  %40 = load ptr, ptr %9, align 8, !tbaa !8
  %41 = load i32, ptr %13, align 4, !tbaa !10
  %42 = zext i32 %41 to i64
  %43 = getelementptr inbounds nuw float, ptr %40, i64 %42
  store float %39, ptr %43, align 4, !tbaa !12
  br label %44

44:                                               ; preds = %25
  %45 = load i32, ptr %13, align 4, !tbaa !10
  %46 = add i32 %45, 1
  store i32 %46, ptr %13, align 4, !tbaa !10
  br label %21, !llvm.loop !23

47:                                               ; preds = %21
  %48 = load i32, ptr %13, align 4, !tbaa !10
  %49 = load i32, ptr %10, align 4, !tbaa !10
  %50 = load i32, ptr %11, align 4, !tbaa !10
  %51 = sub i32 %49, %50
  %52 = load i32, ptr %12, align 4, !tbaa !10
  %53 = sub i32 %51, %52
  %54 = icmp ult i32 %48, %53
  br i1 %54, label %55, label %57

55:                                               ; preds = %47
  %56 = load i32, ptr %13, align 4, !tbaa !10
  br label %63

57:                                               ; preds = %47
  %58 = load i32, ptr %10, align 4, !tbaa !10
  %59 = load i32, ptr %11, align 4, !tbaa !10
  %60 = sub i32 %58, %59
  %61 = load i32, ptr %12, align 4, !tbaa !10
  %62 = sub i32 %60, %61
  br label %63

63:                                               ; preds = %57, %55
  %64 = phi i32 [ %56, %55 ], [ %62, %57 ]
  store i32 %64, ptr %13, align 4, !tbaa !10
  %65 = load i32, ptr %10, align 4, !tbaa !10
  %66 = load i32, ptr %11, align 4, !tbaa !10
  %67 = sub i32 %65, %66
  store i32 %67, ptr %14, align 4, !tbaa !10
  br label %68

68:                                               ; preds = %91, %63
  %69 = load i32, ptr %14, align 4, !tbaa !10
  %70 = load i32, ptr %10, align 4, !tbaa !10
  %71 = icmp ult i32 %69, %70
  br i1 %71, label %72, label %96

72:                                               ; preds = %68
  %73 = load ptr, ptr %7, align 8, !tbaa !16
  %74 = load i32, ptr %12, align 4, !tbaa !10
  %75 = load i32, ptr %13, align 4, !tbaa !10
  %76 = add i32 %74, %75
  %77 = zext i32 %76 to i64
  %78 = getelementptr inbounds nuw i64, ptr %73, i64 %77
  %79 = load i64, ptr %78, align 8, !tbaa !18
  %80 = sitofp i64 %79 to float
  %81 = load ptr, ptr %8, align 8, !tbaa !8
  %82 = load i32, ptr %14, align 4, !tbaa !10
  %83 = zext i32 %82 to i64
  %84 = getelementptr inbounds nuw float, ptr %81, i64 %83
  %85 = load float, ptr %84, align 4, !tbaa !12
  %86 = fmul reassoc nsz arcp float %80, %85
  %87 = load ptr, ptr %9, align 8, !tbaa !8
  %88 = load i32, ptr %13, align 4, !tbaa !10
  %89 = zext i32 %88 to i64
  %90 = getelementptr inbounds nuw float, ptr %87, i64 %89
  store float %86, ptr %90, align 4, !tbaa !12
  br label %91

91:                                               ; preds = %72
  %92 = load i32, ptr %13, align 4, !tbaa !10
  %93 = add i32 %92, 1
  store i32 %93, ptr %13, align 4, !tbaa !10
  %94 = load i32, ptr %14, align 4, !tbaa !10
  %95 = add i32 %94, 1
  store i32 %95, ptr %14, align 4, !tbaa !10
  br label %68, !llvm.loop !24

96:                                               ; preds = %68
  %97 = load i32, ptr %13, align 4, !tbaa !10
  %98 = load i32, ptr %10, align 4, !tbaa !10
  %99 = icmp ult i32 %97, %98
  br i1 %99, label %100, label %105

100:                                              ; preds = %96
  %101 = load ptr, ptr %9, align 8, !tbaa !8
  %102 = load i32, ptr %13, align 4, !tbaa !10
  %103 = zext i32 %102 to i64
  %104 = getelementptr inbounds nuw float, ptr %101, i64 %103
  store float 0.000000e+00, ptr %104, align 4, !tbaa !12
  br label %105

105:                                              ; preds = %100, %96
  br label %106

106:                                              ; preds = %105, %6
  call void @llvm.lifetime.end.p0(i64 4, ptr %14) #5
  call void @llvm.lifetime.end.p0(i64 4, ptr %13) #5
  ret void
}